target datalayout = "e-m:e-p270:32:32-p271:32:32-p272:64:64-i64:64-i128:128-f80:128-n8:16:32:64-S128"
target triple = "x86_64-unknown-linux-gnu"

%"class.rocksdb::TransactionLogIteratorImpl" = type { %"class.rocksdb::TransactionLogIterator", ptr, ptr, %"struct.rocksdb::TransactionLogIterator::ReadOptions", ptr, i64, %"class.std::unique_ptr", ptr, i8, %"class.std::shared_ptr", i8, i8, %"class.rocksdb::Status", i64, %"class.std::unique_ptr.10", %"class.std::unique_ptr.18", %"class.std::__cxx11::basic_string", %"struct.rocksdb::TransactionLogIteratorImpl::LogReporter", i64, i64 }
%"class.rocksdb::TransactionLogIterator" = type { ptr }
%"struct.rocksdb::TransactionLogIterator::ReadOptions" = type { i8 }
%"class.std::unique_ptr" = type { %"struct.std::__uniq_ptr_data" }
%"struct.std::__uniq_ptr_data" = type { %"class.std::__uniq_ptr_impl" }
%"class.std::__uniq_ptr_impl" = type { %"class.std::tuple" }
%"class.std::tuple" = type { %"struct.std::_Tuple_impl" }
%"struct.std::_Tuple_impl" = type { %"struct.std::_Head_base.1" }
%"struct.std::_Head_base.1" = type { ptr }
%"class.std::shared_ptr" = type { %"class.std::__shared_ptr" }
%"class.std::__shared_ptr" = type { ptr, %"class.std::__shared_count" }
%"class.std::__shared_count" = type { ptr }
%"class.rocksdb::Status" = type { i8, i8, i8, i8, i8, i8, %"class.std::unique_ptr.2" }
%"class.std::unique_ptr.2" = type { %"struct.std::__uniq_ptr_data.3" }
%"struct.std::__uniq_ptr_data.3" = type { %"class.std::__uniq_ptr_impl.4" }
%"class.std::__uniq_ptr_impl.4" = type { %"class.std::tuple.5" }
%"class.std::tuple.5" = type { %"struct.std::_Tuple_impl.6" }
%"struct.std::_Tuple_impl.6" = type { %"struct.std::_Head_base.9" }
%"struct.std::_Head_base.9" = type { ptr }
%"class.std::unique_ptr.10" = type { %"struct.std::__uniq_ptr_data.11" }
%"struct.std::__uniq_ptr_data.11" = type { %"class.std::__uniq_ptr_impl.12" }
%"class.std::__uniq_ptr_impl.12" = type { %"class.std::tuple.13" }
%"class.std::tuple.13" = type { %"struct.std::_Tuple_impl.14" }
%"struct.std::_Tuple_impl.14" = type { %"struct.std::_Head_base.17" }
%"struct.std::_Head_base.17" = type { ptr }
%"class.std::unique_ptr.18" = type { %"struct.std::__uniq_ptr_data.19" }
%"struct.std::__uniq_ptr_data.19" = type { %"class.std::__uniq_ptr_impl.20" }
%"class.std::__uniq_ptr_impl.20" = type { %"class.std::tuple.21" }
%"class.std::tuple.21" = type { %"struct.std::_Tuple_impl.22" }
%"struct.std::_Tuple_impl.22" = type { %"struct.std::_Head_base.25" }
%"struct.std::_Head_base.25" = type { ptr }
%"class.std::__cxx11::basic_string" = type { %"struct.std::__cxx11::basic_string<char>::_Alloc_hider", i64, %union.anon }
%"struct.std::__cxx11::basic_string<char>::_Alloc_hider" = type { ptr }
%union.anon = type { i64, [8 x i8] }
%"struct.rocksdb::TransactionLogIteratorImpl::LogReporter" = type { %"class.rocksdb::log::Reader::Reporter", ptr, ptr }
%"class.rocksdb::log::Reader::Reporter" = type { ptr }
%"class.std::shared_ptr.60" = type { %"class.std::__shared_ptr.61" }
%"class.std::__shared_ptr.61" = type { ptr, %"class.std::__shared_count" }
%"class.rocksdb::FileSystemPtr" = type { %"class.std::shared_ptr.60", %"class.std::shared_ptr", %"class.std::shared_ptr.66" }
%"class.std::shared_ptr.66" = type { %"class.std::__shared_ptr.67" }
%"class.std::__shared_ptr.67" = type { ptr, %"class.std::__shared_count" }
%"struct.rocksdb::EnvOptions" = type { i8, i8, i8, i8, i8, i8, i64, i8, i8, i64, i64, i64, ptr }
%"struct.rocksdb::FileOptions" = type <{ %"struct.rocksdb::EnvOptions", %"struct.rocksdb::IOOptions", i8, i8, [6 x i8] }>
%"struct.rocksdb::IOOptions" = type <{ %"class.std::chrono::duration", i8, [3 x i8], i32, i8, [7 x i8], %"class.std::unordered_map", i8, i8, i8, [5 x i8] }>
%"class.std::chrono::duration" = type { i64 }
%"class.std::unordered_map" = type { %"class.std::_Hashtable" }
%"class.std::_Hashtable" = type { ptr, i64, %"struct.std::__detail::_Hash_node_base", i64, %"struct.std::__detail::_Prime_rehash_policy", ptr }
%"struct.std::__detail::_Hash_node_base" = type { ptr }
%"struct.std::__detail::_Prime_rehash_policy" = type { float, i64 }
%"class.rocksdb::IOStatus" = type { %"class.rocksdb::Status" }
%"struct.std::atomic" = type { %"struct.std::__atomic_base" }
%"struct.std::__atomic_base" = type { i64 }
%"class.rocksdb::VersionSet" = type { ptr, %"class.rocksdb::WalSet", %"class.std::unique_ptr.99", ptr, ptr, %"class.rocksdb::FileSystemPtr", ptr, %"class.std::__cxx11::basic_string", %"class.std::__cxx11::basic_string", ptr, %"struct.std::atomic", %"struct.std::atomic", i64, i64, i64, i64, %"struct.std::atomic", i64, %"struct.std::atomic", %"struct.std::atomic", i64, %"class.std::unique_ptr.107", i64, %"class.std::deque", i64, %"class.std::vector.118", %"class.std::vector.123", %"class.std::vector.128", %"struct.rocksdb::FileOptions", ptr, %"class.rocksdb::IOStatus", %"class.std::shared_ptr", %"class.std::__cxx11::basic_string", %"struct.rocksdb::OffpeakTimeOption", ptr }
%"class.rocksdb::WalSet" = type { %"class.std::map", i64 }
%"class.std::map" = type { %"class.std::_Rb_tree" }
%"class.std::_Rb_tree" = type { %"struct.std::_Rb_tree<unsigned long, std::pair<const unsigned long, rocksdb::WalMetadata>, std::_Select1st<std::pair<const unsigned long, rocksdb::WalMetadata>>, std::less<unsigned long>>::_Rb_tree_impl" }
%"struct.std::_Rb_tree<unsigned long, std::pair<const unsigned long, rocksdb::WalMetadata>, std::_Select1st<std::pair<const unsigned long, rocksdb::WalMetadata>>, std::less<unsigned long>>::_Rb_tree_impl" = type { %"struct.std::_Rb_tree_key_compare", %"struct.std::_Rb_tree_header" }
%"struct.std::_Rb_tree_key_compare" = type { %"struct.std::less" }
%"struct.std::less" = type { i8 }
%"struct.std::_Rb_tree_header" = type { %"struct.std::_Rb_tree_node_base", i64 }
%"struct.std::_Rb_tree_node_base" = type { i32, ptr, ptr, ptr }
%"class.std::unique_ptr.99" = type { %"struct.std::__uniq_ptr_data.100" }
%"struct.std::__uniq_ptr_data.100" = type { %"class.std::__uniq_ptr_impl.101" }
%"class.std::__uniq_ptr_impl.101" = type { %"class.std::tuple.102" }
%"class.std::tuple.102" = type { %"struct.std::_Tuple_impl.103" }
%"struct.std::_Tuple_impl.103" = type { %"struct.std::_Head_base.106" }
%"struct.std::_Head_base.106" = type { ptr }
%"class.std::unique_ptr.107" = type { %"struct.std::__uniq_ptr_data.108" }
%"struct.std::__uniq_ptr_data.108" = type { %"class.std::__uniq_ptr_impl.109" }
%"class.std::__uniq_ptr_impl.109" = type { %"class.std::tuple.110" }
%"class.std::tuple.110" = type { %"struct.std::_Tuple_impl.111" }
%"struct.std::_Tuple_impl.111" = type { %"struct.std::_Head_base.114" }
%"struct.std::_Head_base.114" = type { ptr }
%"class.std::deque" = type { %"class.std::_Deque_base" }
%"class.std::_Deque_base" = type { %"struct.std::_Deque_base<rocksdb::VersionSet::ManifestWriter *, std::allocator<rocksdb::VersionSet::ManifestWriter *>>::_Deque_impl" }
%"struct.std::_Deque_base<rocksdb::VersionSet::ManifestWriter *, std::allocator<rocksdb::VersionSet::ManifestWriter *>>::_Deque_impl" = type { %"struct.std::_Deque_base<rocksdb::VersionSet::ManifestWriter *, std::allocator<rocksdb::VersionSet::ManifestWriter *>>::_Deque_impl_data" }
%"struct.std::_Deque_base<rocksdb::VersionSet::ManifestWriter *, std::allocator<rocksdb::VersionSet::ManifestWriter *>>::_Deque_impl_data" = type { ptr, i64, %"struct.std::_Deque_iterator", %"struct.std::_Deque_iterator" }
%"struct.std::_Deque_iterator" = type { ptr, ptr, ptr, ptr }
%"class.std::vector.118" = type { %"struct.std::_Vector_base.119" }
%"struct.std::_Vector_base.119" = type { %"struct.std::_Vector_base<rocksdb::ObsoleteFileInfo, std::allocator<rocksdb::ObsoleteFileInfo>>::_Vector_impl" }
%"struct.std::_Vector_base<rocksdb::ObsoleteFileInfo, std::allocator<rocksdb::ObsoleteFileInfo>>::_Vector_impl" = type { %"struct.std::_Vector_base<rocksdb::ObsoleteFileInfo, std::allocator<rocksdb::ObsoleteFileInfo>>::_Vector_impl_data" }
%"struct.std::_Vector_base<rocksdb::ObsoleteFileInfo, std::allocator<rocksdb::ObsoleteFileInfo>>::_Vector_impl_data" = type { ptr, ptr, ptr }
%"class.std::vector.123" = type { %"struct.std::_Vector_base.124" }
%"struct.std::_Vector_base.124" = type { %"struct.std::_Vector_base<rocksdb::ObsoleteBlobFileInfo, std::allocator<rocksdb::ObsoleteBlobFileInfo>>::_Vector_impl" }
%"struct.std::_Vector_base<rocksdb::ObsoleteBlobFileInfo, std::allocator<rocksdb::ObsoleteBlobFileInfo>>::_Vector_impl" = type { %"struct.std::_Vector_base<rocksdb::ObsoleteBlobFileInfo, std::allocator<rocksdb::ObsoleteBlobFileInfo>>::_Vector_impl_data" }
%"struct.std::_Vector_base<rocksdb::ObsoleteBlobFileInfo, std::allocator<rocksdb::ObsoleteBlobFileInfo>>::_Vector_impl_data" = type { ptr, ptr, ptr }
%"class.std::vector.128" = type { %"struct.std::_Vector_base.129" }
%"struct.std::_Vector_base.129" = type { %"struct.std::_Vector_base<std::__cxx11::basic_string<char>, std::allocator<std::__cxx11::basic_string<char>>>::_Vector_impl" }
%"struct.std::_Vector_base<std::__cxx11::basic_string<char>, std::allocator<std::__cxx11::basic_string<char>>>::_Vector_impl" = type { %"struct.std::_Vector_base<std::__cxx11::basic_string<char>, std::allocator<std::__cxx11::basic_string<char>>>::_Vector_impl_data" }
%"struct.std::_Vector_base<std::__cxx11::basic_string<char>, std::allocator<std::__cxx11::basic_string<char>>>::_Vector_impl_data" = type { ptr, ptr, ptr }
%"struct.rocksdb::OffpeakTimeOption" = type { %"class.std::__cxx11::basic_string", i32, i32 }

@.str.5 = private unnamed_addr constant [126 x i8] c"Discontinuity in log records. Got seq=%lu, Expected seq=%lu, Last flushed seq=%lu.Log iterator will reseek the correct batch.\00", align 1
@.str.12 = private unnamed_addr constant [12 x i8] c"[%s:105] %s\00", align 1
@.str.13 = private unnamed_addr constant [119 x i8] c"generated/home/dtcxzyw/WorkSpace/Projects/compilers/llvm-opt-benchmark/bench/rocksdb/rocksdb/db/transaction_log_impl.h\00", align 1

; Function Attrs: mustprogress nounwind uwtable
define linkonce_odr noundef ptr @_Z23RocksLogShorterFileNamePKc(ptr noundef %file) #1 comdat {
entry:
  %file.addr = alloca ptr, align 8
  store ptr %file, ptr %file.addr, align 8
  %0 = load ptr, ptr %file.addr, align 8
  %add.ptr = getelementptr inbounds i8, ptr %0, i64 93
  ret ptr %add.ptr
}

; Function Attrs: noreturn nounwind uwtable
define linkonce_odr hidden void @__clang_call_terminate(ptr noundef %0) #11 comdat {
  %2 = call ptr @__cxa_begin_catch(ptr %0) #3
  call void @_ZSt9terminatev() #16
  unreachable
}

; Function Attrs: mustprogress nounwind uwtable
define linkonce_odr noundef i32 @_ZStanSt12memory_orderSt23__memory_order_modifier(i32 noundef %__m, i32 noundef %__mod) #1 comdat {
entry:
  %__m.addr = alloca i32, align 4
  %__mod.addr = alloca i32, align 4
  store i32 %__m, ptr %__m.addr, align 4
  store i32 %__mod, ptr %__mod.addr, align 4
  %0 = load i32, ptr %__m.addr, align 4
  %1 = load i32, ptr %__mod.addr, align 4
  %and = and i32 %0, %1
  ret i32 %and
}

; Function Attrs: mustprogress uwtable
define linkonce_odr void @_ZN7rocksdb26TransactionLogIteratorImpl11LogReporter4InfoEPKc(ptr noundef nonnull align 8 dereferenceable(24) %this, ptr noundef %s) unnamed_addr #0 comdat align 2 {
entry:
  %this.addr = alloca ptr, align 8
  %s.addr = alloca ptr, align 8
  store ptr %this, ptr %this.addr, align 8
  store ptr %s, ptr %s.addr, align 8
  %this1 = load ptr, ptr %this.addr, align 8
  %info_log = getelementptr inbounds %"struct.rocksdb::TransactionLogIteratorImpl::LogReporter", ptr %this1, i32 0, i32 2
  %0 = load ptr, ptr %info_log, align 8
  %call = call noundef ptr @_Z23RocksLogShorterFileNamePKc(ptr noundef @.str.13)
  %1 = load ptr, ptr %s.addr, align 8
  call void (i8, ptr, ptr, ...) @_ZN7rocksdb3LogENS_12InfoLogLevelEPNS_6LoggerEPKcz(i8 noundef zeroext 1, ptr noundef %0, ptr noundef @.str.12, ptr noundef %call, ptr noundef %1)
  ret void
}

; Function Attrs: mustprogress nounwind uwtable
define linkonce_odr noundef i64 @_ZNK7rocksdb10VersionSet12LastSequenceEv(ptr noundef nonnull align 8 dereferenceable(752) %this) #1 comdat align 2 personality ptr @__gxx_personality_v0 {
entry:
  %this.addr.i = alloca ptr, align 8
  %__m.addr.i = alloca i32, align 4
  %__b.i = alloca i32, align 4
  %atomic-temp.i = alloca i64, align 8
  %this.addr = alloca ptr, align 8
  store ptr %this, ptr %this.addr, align 8
  %this1 = load ptr, ptr %this.addr, align 8
  %last_sequence_ = getelementptr inbounds %"class.rocksdb::VersionSet", ptr %this1, i32 0, i32 16
  store ptr %last_sequence_, ptr %this.addr.i, align 8
  store i32 2, ptr %__m.addr.i, align 4
  %this1.i = load ptr, ptr %this.addr.i, align 8
  %0 = load i32, ptr %__m.addr.i, align 4
  %call.i = invoke noundef i32 @_ZStanSt12memory_orderSt23__memory_order_modifier(i32 noundef %0, i32 noundef 65535)
          to label %invoke.cont.i unwind label %terminate.lpad.i

invoke.cont.i:                                    ; preds = %entry
  store i32 %call.i, ptr %__b.i, align 4
  %1 = load i32, ptr %__m.addr.i, align 4
  switch i32 %1, label %monotonic.i [
    i32 1, label %acquire.i
    i32 2, label %acquire.i
    i32 5, label %seqcst.i
  ]

monotonic.i:                                      ; preds = %invoke.cont.i
  %2 = load atomic i64, ptr %this1.i monotonic, align 8
  store i64 %2, ptr %atomic-temp.i, align 8
  br label %_ZNKSt13__atomic_baseImE4loadESt12memory_order.exit

acquire.i:                                        ; preds = %invoke.cont.i, %invoke.cont.i
  %3 = load atomic i64, ptr %this1.i acquire, align 8
  store i64 %3, ptr %atomic-temp.i, align 8
  br label %_ZNKSt13__atomic_baseImE4loadESt12memory_order.exit

seqcst.i:                                         ; preds = %invoke.cont.i
  %4 = load atomic i64, ptr %this1.i seq_cst, align 8
  store i64 %4, ptr %atomic-temp.i, align 8
  br label %_ZNKSt13__atomic_baseImE4loadESt12memory_order.exit

terminate.lpad.i:                                 ; preds = %entry
  %5 = landingpad { ptr, i32 }
          catch ptr null
  %6 = extractvalue { ptr, i32 } %5, 0
  call void @__clang_call_terminate(ptr %6) #16
  unreachable

_ZNKSt13__atomic_baseImE4loadESt12memory_order.exit: ; preds = %seqcst.i, %acquire.i, %monotonic.i
  %7 = load i64, ptr %atomic-temp.i, align 8
  ret i64 %7
}

; Function Attrs: mustprogress uwtable
define noundef zeroext i1 @_ZN7rocksdb26TransactionLogIteratorImpl15IsBatchExpectedEPKNS_10WriteBatchEm(ptr noundef nonnull align 8 dereferenceable(208) %this, ptr noundef %batch, i64 noundef %expected_seq) #0 align 2 {
entry:
  %retval = alloca i1, align 1
  %this.addr = alloca ptr, align 8
  %batch.addr = alloca ptr, align 8
  %expected_seq.addr = alloca i64, align 8
  %batchSeq = alloca i64, align 8
  %buf = alloca [200 x i8], align 16
  store ptr %this, ptr %this.addr, align 8
  store ptr %batch, ptr %batch.addr, align 8
  store i64 %expected_seq, ptr %expected_seq.addr, align 8
  %this1 = load ptr, ptr %this.addr, align 8
  %0 = load ptr, ptr %batch.addr, align 8
  %call = call noundef i64 @_ZN7rocksdb18WriteBatchInternal8SequenceEPKNS_10WriteBatchE(ptr noundef %0)
  store i64 %call, ptr %batchSeq, align 8
  %1 = load i64, ptr %batchSeq, align 8
  %2 = load i64, ptr %expected_seq.addr, align 8
  %cmp = icmp ne i64 %1, %2
  br i1 %cmp, label %if.then, label %if.end

if.then:                                          ; preds = %entry
  %arraydecay = getelementptr inbounds [200 x i8], ptr %buf, i64 0, i64 0
  %3 = load i64, ptr %batchSeq, align 8
  %4 = load i64, ptr %expected_seq.addr, align 8
  %versions_ = getelementptr inbounds %"class.rocksdb::TransactionLogIteratorImpl", ptr %this1, i32 0, i32 7
  %5 = load ptr, ptr %versions_, align 8
  %call2 = call noundef i64 @_ZNK7rocksdb10VersionSet12LastSequenceEv(ptr noundef nonnull align 8 dereferenceable(752) %5)
  %call3 = call i32 (ptr, i64, ptr, ...) @snprintf(ptr noundef %arraydecay, i64 noundef 200, ptr noundef @.str.5, i64 noundef %3, i64 noundef %4, i64 noundef %call2) #3
  %reporter_ = getelementptr inbounds %"class.rocksdb::TransactionLogIteratorImpl", ptr %this1, i32 0, i32 17
  %arraydecay4 = getelementptr inbounds [200 x i8], ptr %buf, i64 0, i64 0
  call void @_ZN7rocksdb26TransactionLogIteratorImpl11LogReporter4InfoEPKc(ptr noundef nonnull align 8 dereferenceable(24) %reporter_, ptr noundef %arraydecay4)
  store i1 false, ptr %retval, align 1
  br label %return

if.end:                                           ; preds = %entry
  store i1 true, ptr %retval, align 1
  br label %return

return:                                           ; preds = %if.end, %if.then
  %6 = load i1, ptr %retval, align 1
  ret i1 %6
}