; Function Attrs: mustprogress uwtable
define noundef zeroext i1 @_ZN7rocksdb26TransactionLogIteratorImpl15IsBatchExpectedEPKNS_10WriteBatchEm(ptr nocapture noundef nonnull readonly align 8 dereferenceable(208) %this, ptr noundef %batch, i64 noundef %expected_seq) local_unnamed_addr #2 align 2 personality ptr @__gxx_personality_v0 {
entry:
  %buf = alloca [200 x i8], align 16
  %call = tail call noundef i64 @_ZN7rocksdb18WriteBatchInternal8SequenceEPKNS_10WriteBatchE(ptr noundef %batch)
  %cmp.not = icmp eq i64 %call, %expected_seq
  br i1 %cmp.not, label %return, label %if.then

if.then:                                          ; preds = %entry
  %versions_ = getelementptr inbounds i8, ptr %this, i64 56
  %0 = load ptr, ptr %versions_, align 8
  %last_sequence_.i = getelementptr inbounds i8, ptr %0, i64 264
  %1 = load atomic i64, ptr %last_sequence_.i acquire, align 8
  %call3 = call i32 (ptr, i64, ptr, ...) @snprintf(ptr noundef nonnull dereferenceable(1) %buf, i64 noundef 200, ptr noundef nonnull @.str.5, i64 noundef %call, i64 noundef %expected_seq, i64 noundef %1) #20
  %info_log.i = getelementptr inbounds i8, ptr %this, i64 184
  %2 = load ptr, ptr %info_log.i, align 8
  call void (i8, ptr, ptr, ...) @_ZN7rocksdb3LogENS_12InfoLogLevelEPNS_6LoggerEPKcz(i8 noundef zeroext 1, ptr noundef %2, ptr noundef nonnull @.str.12, ptr noundef nonnull getelementptr inbounds ([119 x i8], ptr @.str.13, i64 0, i64 93), ptr noundef nonnull %buf)
  br label %return

return:                                           ; preds = %entry, %if.then
  ret i1 %cmp.not
}